target datalayout = "e-m:e-p270:32:32-p271:32:32-p272:64:64-i64:64-i128:128-f80:128-n8:16:32:64-S128"
target triple = "x86_64-pc-linux-gnu"

%struct._zval_struct = type { %union._zend_value, %union.anon.3, %union.anon.6 }
%union._zend_value = type { i64 }
%union.anon.3 = type { i32 }
%union.anon.6 = type { i32 }
%struct._zend_array = type { %struct._zend_refcounted_h, %union.anon.0, i32, %union.anon.1, i32, i32, i32, i32, i64, ptr }
%struct._zend_refcounted_h = type { i32, %union.anon }
%union.anon = type { i32 }
%union.anon.0 = type { i32 }
%union.anon.1 = type { ptr }
%struct.php_dom_xpath_callback_ns = type { %struct._zend_array, i32 }
%struct.php_dom_xpath_callbacks = type { ptr, ptr, ptr }

; Function Attrs: nounwind uwtable
define void @php_dom_xpath_callback_ns_ctor(ptr noundef %0) #0 {
  %2 = alloca ptr, align 8
  store ptr %0, ptr %2, align 8
  %3 = load ptr, ptr %2, align 8
  %4 = getelementptr inbounds %struct.php_dom_xpath_callback_ns, ptr %3, i32 0, i32 0
  call void @_zend_hash_init(ptr noundef %4, i32 noundef 0, ptr noundef @xpath_callbacks_entry_dtor, i1 noundef zeroext false)
  %5 = load ptr, ptr %2, align 8
  %6 = getelementptr inbounds %struct.php_dom_xpath_callback_ns, ptr %5, i32 0, i32 1
  store i32 0, ptr %6, align 8
  ret void
}

; Function Attrs: nounwind uwtable
define internal ptr @php_dom_xpath_callbacks_ensure_ns(ptr noundef %0, ptr noundef %1) #0 {
  %3 = alloca ptr, align 8
  %4 = alloca ptr, align 8
  %5 = alloca ptr, align 8
  %6 = alloca ptr, align 8
  %7 = alloca %struct._zval_struct, align 8
  %8 = alloca ptr, align 8
  %9 = alloca ptr, align 8
  %10 = alloca ptr, align 8
  %11 = alloca ptr, align 8
  %12 = alloca ptr, align 8
  %13 = alloca ptr, align 8
  %14 = alloca ptr, align 8
  %15 = alloca ptr, align 8
  %16 = alloca ptr, align 8
  store ptr %0, ptr %14, align 8
  store ptr %1, ptr %15, align 8
  %17 = load ptr, ptr %15, align 8
  %18 = icmp eq ptr %17, null
  br i1 %18, label %19, label %35

19:                                               ; preds = %2
  %20 = load ptr, ptr %14, align 8
  %21 = getelementptr inbounds %struct.php_dom_xpath_callbacks, ptr %20, i32 0, i32 0
  %22 = load ptr, ptr %21, align 8
  %23 = icmp ne ptr %22, null
  br i1 %23, label %31, label %24

24:                                               ; preds = %19
  %25 = call noalias ptr @_emalloc_64()
  %26 = load ptr, ptr %14, align 8
  %27 = getelementptr inbounds %struct.php_dom_xpath_callbacks, ptr %26, i32 0, i32 0
  store ptr %25, ptr %27, align 8
  %28 = load ptr, ptr %14, align 8
  %29 = getelementptr inbounds %struct.php_dom_xpath_callbacks, ptr %28, i32 0, i32 0
  %30 = load ptr, ptr %29, align 8
  call void @php_dom_xpath_callback_ns_ctor(ptr noundef %30)
  br label %31

31:                                               ; preds = %24, %19
  %32 = load ptr, ptr %14, align 8
  %33 = getelementptr inbounds %struct.php_dom_xpath_callbacks, ptr %32, i32 0, i32 0
  %34 = load ptr, ptr %33, align 8
  store ptr %34, ptr %13, align 8
  br label %90

35:                                               ; preds = %2
  %36 = load ptr, ptr %14, align 8
  %37 = getelementptr inbounds %struct.php_dom_xpath_callbacks, ptr %36, i32 0, i32 1
  %38 = load ptr, ptr %37, align 8
  %39 = icmp ne ptr %38, null
  br i1 %39, label %44, label %40

40:                                               ; preds = %35
  %41 = call ptr @_zend_new_array_0()
  %42 = load ptr, ptr %14, align 8
  %43 = getelementptr inbounds %struct.php_dom_xpath_callbacks, ptr %42, i32 0, i32 1
  store ptr %41, ptr %43, align 8
  br label %44

44:                                               ; preds = %40, %35
  %45 = load ptr, ptr %14, align 8
  %46 = getelementptr inbounds %struct.php_dom_xpath_callbacks, ptr %45, i32 0, i32 1
  %47 = load ptr, ptr %46, align 8
  %48 = load ptr, ptr %15, align 8
  store ptr %47, ptr %10, align 8
  store ptr %48, ptr %11, align 8
  %49 = load ptr, ptr %10, align 8
  %50 = load ptr, ptr %11, align 8
  %51 = call ptr @zend_hash_find(ptr noundef %49, ptr noundef %50) #8
  store ptr %51, ptr %12, align 8
  %52 = load ptr, ptr %12, align 8
  %53 = icmp ne ptr %52, null
  br i1 %53, label %54, label %60

54:                                               ; preds = %44
  %55 = load ptr, ptr %12, align 8
  %56 = load ptr, ptr %55, align 8
  %57 = icmp ne ptr %56, null
  call void @llvm.assume(i1 %57)
  %58 = load ptr, ptr %12, align 8
  %59 = load ptr, ptr %58, align 8
  store ptr %59, ptr %9, align 8
  br label %61

60:                                               ; preds = %44
  store ptr null, ptr %9, align 8
  br label %61

61:                                               ; preds = %60, %54
  %62 = load ptr, ptr %9, align 8
  store ptr %62, ptr %16, align 8
  %63 = load ptr, ptr %16, align 8
  %64 = icmp eq ptr %63, null
  br i1 %64, label %65, label %88

65:                                               ; preds = %61
  %66 = call noalias ptr @_emalloc_64()
  store ptr %66, ptr %16, align 8
  %67 = load ptr, ptr %16, align 8
  call void @php_dom_xpath_callback_ns_ctor(ptr noundef %67)
  %68 = load ptr, ptr %14, align 8
  %69 = getelementptr inbounds %struct.php_dom_xpath_callbacks, ptr %68, i32 0, i32 1
  %70 = load ptr, ptr %69, align 8
  %71 = load ptr, ptr %15, align 8
  %72 = load ptr, ptr %16, align 8
  store ptr %70, ptr %4, align 8
  store ptr %71, ptr %5, align 8
  store ptr %72, ptr %6, align 8
  %73 = load ptr, ptr %6, align 8
  store ptr %73, ptr %7, align 8
  %74 = getelementptr inbounds %struct._zval_struct, ptr %7, i32 0, i32 1
  store i32 13, ptr %74, align 8
  %75 = load ptr, ptr %4, align 8
  %76 = load ptr, ptr %5, align 8
  %77 = call ptr @zend_hash_add_new(ptr noundef %75, ptr noundef %76, ptr noundef %7) #8
  store ptr %77, ptr %8, align 8
  %78 = load ptr, ptr %8, align 8
  %79 = icmp ne ptr %78, null
  br i1 %79, label %80, label %86

80:                                               ; preds = %65
  %81 = load ptr, ptr %8, align 8
  %82 = load ptr, ptr %81, align 8
  %83 = icmp ne ptr %82, null
  call void @llvm.assume(i1 %83)
  %84 = load ptr, ptr %8, align 8
  %85 = load ptr, ptr %84, align 8
  store ptr %85, ptr %3, align 8
  br label %87

86:                                               ; preds = %65
  store ptr null, ptr %3, align 8
  br label %87

87:                                               ; preds = %86, %80
  br label %88

88:                                               ; preds = %87, %61
  %89 = load ptr, ptr %16, align 8
  store ptr %89, ptr %13, align 8
  br label %90

90:                                               ; preds = %88, %31
  %91 = load ptr, ptr %13, align 8
  ret ptr %91
}