; Function Attrs: nounwind uwtable
define internal fastcc ptr @php_dom_xpath_callbacks_ensure_ns(ptr nocapture noundef %0, ptr noundef %1) unnamed_addr #0 {
  %3 = alloca %struct._zval_struct, align 8
  %4 = icmp eq ptr %1, null
  br i1 %4, label %5, label %10

5:                                                ; preds = %2
  %6 = load ptr, ptr %0, align 8
  %.not35 = icmp eq ptr %6, null
  br i1 %.not35, label %7, label %29

7:                                                ; preds = %5
  %8 = tail call noalias ptr @_emalloc_64() #9
  store ptr %8, ptr %0, align 8
  tail call void @_zend_hash_init(ptr noundef %8, i32 noundef 0, ptr noundef nonnull @xpath_callbacks_entry_dtor, i1 noundef zeroext false) #9
  %9 = getelementptr inbounds i8, ptr %8, i64 56
  store i32 0, ptr %9, align 8
  %.pre = load ptr, ptr %0, align 8
  br label %29

10:                                               ; preds = %2
  %11 = getelementptr inbounds i8, ptr %0, i64 8
  %12 = load ptr, ptr %11, align 8
  %.not = icmp eq ptr %12, null
  br i1 %.not, label %13, label %15

13:                                               ; preds = %10
  %14 = tail call ptr @_zend_new_array_0() #9
  store ptr %14, ptr %11, align 8
  br label %15

15:                                               ; preds = %13, %10
  %16 = phi ptr [ %14, %13 ], [ %12, %10 ]
  %17 = tail call ptr @zend_hash_find(ptr noundef %16, ptr noundef nonnull %1) #9
  %.not33 = icmp eq ptr %17, null
  br i1 %.not33, label %20, label %18

18:                                               ; preds = %15
  %19 = load ptr, ptr %17, align 8, !nonnull !4, !noundef !4
  br label %29

20:                                               ; preds = %15
  %21 = tail call noalias ptr @_emalloc_64() #9
  tail call void @_zend_hash_init(ptr noundef %21, i32 noundef 0, ptr noundef nonnull @xpath_callbacks_entry_dtor, i1 noundef zeroext false) #9
  %22 = getelementptr inbounds i8, ptr %21, i64 56
  store i32 0, ptr %22, align 8
  %23 = load ptr, ptr %11, align 8
  store ptr %21, ptr %3, align 8
  %24 = getelementptr inbounds i8, ptr %3, i64 8
  store i32 13, ptr %24, align 8
  %25 = call ptr @zend_hash_add_new(ptr noundef %23, ptr noundef nonnull %1, ptr noundef nonnull %3) #9
  %.not34 = icmp eq ptr %25, null
  br i1 %.not34, label %29, label %26

26:                                               ; preds = %20
  %27 = load ptr, ptr %25, align 8
  %28 = icmp ne ptr %27, null
  call void @llvm.assume(i1 %28)
  br label %29

29:                                               ; preds = %5, %7, %18, %26, %20
  %.029 = phi ptr [ %21, %26 ], [ %19, %18 ], [ %21, %20 ], [ %.pre, %7 ], [ %6, %5 ]
  ret ptr %.029
}